Archive member included to satisfy reference by file (symbol)

/home/Ythunder/Ythunder/OSdev/toolchain/lib/gcc/i686-elf/15.2.0/libgcc.a(_udivdi3.o)
                              /home/Ythunder/Desktop/OSdev/build/stage2/c/stdio.obj (__udivdi3)
/home/Ythunder/Ythunder/OSdev/toolchain/lib/gcc/i686-elf/15.2.0/libgcc.a(_umoddi3.o)
                              /home/Ythunder/Desktop/OSdev/build/stage2/c/stdio.obj (__umoddi3)

There are no discarded input sections

Memory Configuration

Name             Origin             Length             Attributes
*default*        0x00000000         0xffffffff

Linker script and memory map

LOAD /home/Ythunder/Desktop/OSdev/build/stage2/asm/entry.obj
LOAD /home/Ythunder/Desktop/OSdev/build/stage2/asm/gdt.obj
LOAD /home/Ythunder/Desktop/OSdev/build/stage2/asm/idt.obj
LOAD /home/Ythunder/Desktop/OSdev/build/stage2/asm/io.obj
LOAD /home/Ythunder/Desktop/OSdev/build/stage2/asm/isr.obj
LOAD /home/Ythunder/Desktop/OSdev/build/stage2/asm/jump.obj
LOAD /home/Ythunder/Desktop/OSdev/build/stage2/asm/x86.obj
LOAD /home/Ythunder/Desktop/OSdev/build/stage2/c/ata.obj
LOAD /home/Ythunder/Desktop/OSdev/build/stage2/c/fat.obj
LOAD /home/Ythunder/Desktop/OSdev/build/stage2/c/gdt.obj
LOAD /home/Ythunder/Desktop/OSdev/build/stage2/c/idt.obj
LOAD /home/Ythunder/Desktop/OSdev/build/stage2/c/isr.obj
LOAD /home/Ythunder/Desktop/OSdev/build/stage2/c/isrs_gen.obj
LOAD /home/Ythunder/Desktop/OSdev/build/stage2/c/main.obj
LOAD /home/Ythunder/Desktop/OSdev/build/stage2/c/stdio.obj
LOAD /home/Ythunder/Ythunder/OSdev/toolchain/lib/gcc/i686-elf/15.2.0/libgcc.a
                0x00000500                        phys = 0x500
                0x00000500                        . = phys

.entry          0x00000500       0xc0
                0x00000500                        __entry_start = .
 *(.entry)
 .entry         0x00000500       0xc0 /home/Ythunder/Desktop/OSdev/build/stage2/asm/entry.obj
                0x00000500                entry

.text           0x000005c0     0x3856
                0x000005c0                        __text_start = .
 *(.text)
 .text          0x000005c0       0x2c /home/Ythunder/Desktop/OSdev/build/stage2/asm/gdt.obj
                0x000005c0                GDT_Load
 *fill*         0x000005ec        0x4 
 .text          0x000005f0        0xd /home/Ythunder/Desktop/OSdev/build/stage2/asm/idt.obj
                0x000005f0                IDT_Load
 *fill*         0x000005fd        0x3 
 .text          0x00000600       0x19 /home/Ythunder/Desktop/OSdev/build/stage2/asm/io.obj
                0x00000600                outb
                0x0000060b                inb
                0x00000614                Panic
                0x00000616                crash_me
 *fill*         0x00000619        0x7 
 .text          0x00000620      0xa69 /home/Ythunder/Desktop/OSdev/build/stage2/asm/isr.obj
                0x00000620                ISR0
                0x00000629                ISR1
                0x00000632                ISR2
                0x0000063b                ISR3
                0x00000644                ISR4
                0x0000064d                ISR5
                0x00000656                ISR6
                0x0000065f                ISR7
                0x00000668                ISR8
                0x0000066f                ISR9
                0x00000678                ISR10
                0x0000067f                ISR11
                0x00000686                ISR12
                0x0000068d                ISR13
                0x00000694                ISR14
                0x0000069b                ISR15
                0x000006a4                ISR16
                0x000006ad                ISR17
                0x000006b4                ISR18
                0x000006bd                ISR19
                0x000006c6                ISR20
                0x000006cf                ISR21
                0x000006d6                ISR22
                0x000006df                ISR23
                0x000006e8                ISR24
                0x000006f1                ISR25
                0x000006fa                ISR26
                0x00000703                ISR27
                0x0000070c                ISR28
                0x00000715                ISR29
                0x0000071c                ISR30
                0x00000723                ISR31
                0x0000072c                ISR32
                0x00000735                ISR33
                0x0000073e                ISR34
                0x00000747                ISR35
                0x00000750                ISR36
                0x00000759                ISR37
                0x00000762                ISR38
                0x0000076b                ISR39
                0x00000774                ISR40
                0x0000077d                ISR41
                0x00000786                ISR42
                0x0000078f                ISR43
                0x00000798                ISR44
                0x000007a1                ISR45
                0x000007aa                ISR46
                0x000007b3                ISR47
                0x000007bc                ISR48
                0x000007c5                ISR49
                0x000007ce                ISR50
                0x000007d7                ISR51
                0x000007e0                ISR52
                0x000007e9                ISR53
                0x000007f2                ISR54
                0x000007fb                ISR55
                0x00000804                ISR56
                0x0000080d                ISR57
                0x00000816                ISR58
                0x0000081f                ISR59
                0x00000828                ISR60
                0x00000831                ISR61
                0x0000083a                ISR62
                0x00000843                ISR63
                0x0000084c                ISR64
                0x00000855                ISR65
                0x0000085e                ISR66
                0x00000867                ISR67
                0x00000870                ISR68
                0x00000879                ISR69
                0x00000882                ISR70
                0x0000088b                ISR71
                0x00000894                ISR72
                0x0000089d                ISR73
                0x000008a6                ISR74
                0x000008af                ISR75
                0x000008b8                ISR76
                0x000008c1                ISR77
                0x000008ca                ISR78
                0x000008d3                ISR79
                0x000008dc                ISR80
                0x000008e5                ISR81
                0x000008ee                ISR82
                0x000008f7                ISR83
                0x00000900                ISR84
                0x00000909                ISR85
                0x00000912                ISR86
                0x0000091b                ISR87
                0x00000924                ISR88
                0x0000092d                ISR89
                0x00000936                ISR90
                0x0000093f                ISR91
                0x00000948                ISR92
                0x00000951                ISR93
                0x0000095a                ISR94
                0x00000963                ISR95
                0x0000096c                ISR96
                0x00000975                ISR97
                0x0000097e                ISR98
                0x00000987                ISR99
                0x00000990                ISR100
                0x00000999                ISR101
                0x000009a2                ISR102
                0x000009ab                ISR103
                0x000009b4                ISR104
                0x000009bd                ISR105
                0x000009c6                ISR106
                0x000009cf                ISR107
                0x000009d8                ISR108
                0x000009e1                ISR109
                0x000009ea                ISR110
                0x000009f3                ISR111
                0x000009fc                ISR112
                0x00000a05                ISR113
                0x00000a0e                ISR114
                0x00000a17                ISR115
                0x00000a20                ISR116
                0x00000a29                ISR117
                0x00000a32                ISR118
                0x00000a3b                ISR119
                0x00000a44                ISR120
                0x00000a4d                ISR121
                0x00000a56                ISR122
                0x00000a5f                ISR123
                0x00000a68                ISR124
                0x00000a71                ISR125
                0x00000a7a                ISR126
                0x00000a83                ISR127
                0x00000a8c                ISR128
                0x00000a98                ISR129
                0x00000aa4                ISR130
                0x00000ab0                ISR131
                0x00000abc                ISR132
                0x00000ac8                ISR133
                0x00000ad4                ISR134
                0x00000ae0                ISR135
                0x00000aec                ISR136
                0x00000af8                ISR137
                0x00000b04                ISR138
                0x00000b10                ISR139
                0x00000b1c                ISR140
                0x00000b28                ISR141
                0x00000b34                ISR142
                0x00000b40                ISR143
                0x00000b4c                ISR144
                0x00000b58                ISR145
                0x00000b64                ISR146
                0x00000b70                ISR147
                0x00000b7c                ISR148
                0x00000b88                ISR149
                0x00000b94                ISR150
                0x00000ba0                ISR151
                0x00000bac                ISR152
                0x00000bb8                ISR153
                0x00000bc4                ISR154
                0x00000bd0                ISR155
                0x00000bdc                ISR156
                0x00000be8                ISR157
                0x00000bf4                ISR158
                0x00000c00                ISR159
                0x00000c0c                ISR160
                0x00000c18                ISR161
                0x00000c24                ISR162
                0x00000c30                ISR163
                0x00000c3c                ISR164
                0x00000c48                ISR165
                0x00000c54                ISR166
                0x00000c60                ISR167
                0x00000c6c                ISR168
                0x00000c78                ISR169
                0x00000c84                ISR170
                0x00000c90                ISR171
                0x00000c9c                ISR172
                0x00000ca8                ISR173
                0x00000cb4                ISR174
                0x00000cc0                ISR175
                0x00000ccc                ISR176
                0x00000cd8                ISR177
                0x00000ce4                ISR178
                0x00000cf0                ISR179
                0x00000cfc                ISR180
                0x00000d08                ISR181
                0x00000d14                ISR182
                0x00000d20                ISR183
                0x00000d2c                ISR184
                0x00000d38                ISR185
                0x00000d44                ISR186
                0x00000d50                ISR187
                0x00000d5c                ISR188
                0x00000d68                ISR189
                0x00000d74                ISR190
                0x00000d80                ISR191
                0x00000d8c                ISR192
                0x00000d98                ISR193
                0x00000da4                ISR194
                0x00000db0                ISR195
                0x00000dbc                ISR196
                0x00000dc8                ISR197
                0x00000dd4                ISR198
                0x00000de0                ISR199
                0x00000dec                ISR200
                0x00000df8                ISR201
                0x00000e04                ISR202
                0x00000e10                ISR203
                0x00000e1c                ISR204
                0x00000e28                ISR205
                0x00000e34                ISR206
                0x00000e40                ISR207
                0x00000e4c                ISR208
                0x00000e58                ISR209
                0x00000e64                ISR210
                0x00000e70                ISR211
                0x00000e7c                ISR212
                0x00000e88                ISR213
                0x00000e94                ISR214
                0x00000ea0                ISR215
                0x00000eac                ISR216
                0x00000eb8                ISR217
                0x00000ec4                ISR218
                0x00000ed0                ISR219
                0x00000edc                ISR220
                0x00000ee8                ISR221
                0x00000ef4                ISR222
                0x00000f00                ISR223
                0x00000f0c                ISR224
                0x00000f18                ISR225
                0x00000f24                ISR226
                0x00000f30                ISR227
                0x00000f3c                ISR228
                0x00000f48                ISR229
                0x00000f54                ISR230
                0x00000f60                ISR231
                0x00000f6c                ISR232
                0x00000f78                ISR233
                0x00000f84                ISR234
                0x00000f90                ISR235
                0x00000f9c                ISR236
                0x00000fa8                ISR237
                0x00000fb4                ISR238
                0x00000fc0                ISR239
                0x00000fcc                ISR240
                0x00000fd8                ISR241
                0x00000fe1                ISR242
                0x00000fea                ISR243
                0x00000ff3                ISR244
                0x00000ffc                ISR245
                0x00001005                ISR246
                0x0000100e                ISR247
                0x00001017                ISR248
                0x00001020                ISR249
                0x00001029                ISR250
                0x00001032                ISR251
                0x0000103b                ISR252
                0x00001044                ISR253
                0x0000104d                ISR254
                0x00001056                ISR255
 *fill*         0x00001089        0x7 
 .text          0x00001090       0x19 /home/Ythunder/Desktop/OSdev/build/stage2/asm/jump.obj
                0x00001090                jump_to_kernel
 *fill*         0x000010a9        0x7 
 .text          0x000010b0       0x4c /home/Ythunder/Desktop/OSdev/build/stage2/asm/x86.obj
                0x000010b0                x86_Video_WriteCharTeletype
                0x000010d9                x86_Video_ClearScreen
 .text          0x000010fc      0x1cc /home/Ythunder/Desktop/OSdev/build/stage2/c/ata.obj
                0x00001157                ata_init
                0x0000119a                ata_read28
 .text          0x000012c8      0x6e3 /home/Ythunder/Desktop/OSdev/build/stage2/c/fat.obj
                0x000012c8                fat16_init
                0x000014b9                fat16_read_root
                0x0000150b                fat16_list
                0x000016d3                fat16_find
                0x00001860                fat16_read_fat
                0x000018fe                fat16_read_file
 .text          0x000019ab       0x1d /home/Ythunder/Desktop/OSdev/build/stage2/c/gdt.obj
                0x000019ab                GDT_Initialize
 .text          0x000019c8       0xba /home/Ythunder/Desktop/OSdev/build/stage2/c/idt.obj
                0x000019c8                IDT_SetGate
                0x00001a29                IDT_EnableGate
                0x00001a49                IDT_DisableGate
                0x00001a69                IDT_Initialize
 .text          0x00001a82      0x1a1 /home/Ythunder/Desktop/OSdev/build/stage2/c/isr.obj
                0x00001a82                ISR_Initialize
                0x00001ac4                ISR_Handler
                0x00001bff                ISR_RegisterHandler
 .text          0x00001c23     0x1489 /home/Ythunder/Desktop/OSdev/build/stage2/c/isrs_gen.obj
                0x00001c23                ISR_InitializeGates
 .text          0x000030ac      0x1f6 /home/Ythunder/Desktop/OSdev/build/stage2/c/main.obj
                0x000030ac                start
                0x0000325a                read_cr0
                0x0000326b                check_protected_mode
 .text          0x000032a2      0x915 /home/Ythunder/Desktop/OSdev/build/stage2/c/stdio.obj
                0x000032a2                putchr
                0x000032d1                putcolor
                0x00003303                getchr
                0x00003325                getcolor
                0x0000334a                setcursor
                0x000033bb                clrscr
                0x00003449                scrollback
                0x00003537                putc
                0x00003647                puts
                0x00003676                printf_unsigned
                0x0000371a                printf_signed
                0x00003777                printf
                0x00003b1e                print_buffer
 *fill*         0x00003bb7        0x9 
 .text          0x00003bc0      0x11a /home/Ythunder/Ythunder/OSdev/toolchain/lib/gcc/i686-elf/15.2.0/libgcc.a(_udivdi3.o)
                0x00003bc0                __udivdi3
 *fill*         0x00003cda        0x6 
 .text          0x00003ce0      0x136 /home/Ythunder/Ythunder/OSdev/toolchain/lib/gcc/i686-elf/15.2.0/libgcc.a(_umoddi3.o)
                0x00003ce0                __umoddi3

.data           0x00003e18       0x3c
                0x00003e18                        __data_start = .
 *(.data)
 .data          0x00003e18        0x4 /home/Ythunder/Desktop/OSdev/build/stage2/asm/x86.obj
 .data          0x00003e1c        0x1 /home/Ythunder/Desktop/OSdev/build/stage2/c/ata.obj
 *fill*         0x00003e1d        0x3 
 .data          0x00003e20        0x8 /home/Ythunder/Desktop/OSdev/build/stage2/c/fat.obj
 .data          0x00003e28       0x1e /home/Ythunder/Desktop/OSdev/build/stage2/c/gdt.obj
                0x00003e28                g_GDT
                0x00003e40                g_GDTDescriptor
 *fill*         0x00003e46        0x2 
 .data          0x00003e48        0x6 /home/Ythunder/Desktop/OSdev/build/stage2/c/idt.obj
                0x00003e48                g_IDTDescriptor
 .data          0x00003e4e        0x0 /home/Ythunder/Desktop/OSdev/build/stage2/c/isr.obj
 .data          0x00003e4e        0x0 /home/Ythunder/Desktop/OSdev/build/stage2/c/isrs_gen.obj
 .data          0x00003e4e        0x0 /home/Ythunder/Desktop/OSdev/build/stage2/c/main.obj
 *fill*         0x00003e4e        0x2 
 .data          0x00003e50        0x4 /home/Ythunder/Desktop/OSdev/build/stage2/c/stdio.obj
                0x00003e50                g_ScreenBuffer
 .data          0x00003e54        0x0 /home/Ythunder/Ythunder/OSdev/toolchain/lib/gcc/i686-elf/15.2.0/libgcc.a(_udivdi3.o)
 .data          0x00003e54        0x0 /home/Ythunder/Ythunder/OSdev/toolchain/lib/gcc/i686-elf/15.2.0/libgcc.a(_umoddi3.o)

.rodata         0x00003e60      0x5af
                0x00003e60                        __rodata_start = .
 *(.rodata)
 .rodata        0x00003e60      0x179 /home/Ythunder/Desktop/OSdev/build/stage2/c/fat.obj
 *fill*         0x00003fd9        0x7 
 .rodata        0x00003fe0      0x34f /home/Ythunder/Desktop/OSdev/build/stage2/c/isr.obj
 .rodata        0x0000432f       0xc1 /home/Ythunder/Desktop/OSdev/build/stage2/c/main.obj
 .rodata        0x000043f0       0x1f /home/Ythunder/Desktop/OSdev/build/stage2/c/stdio.obj
                0x000043f0                SCREEN_WIDTH
                0x000043f4                SCREEN_HEIGHT
                0x000043f8                DEFAULT_COLOR
                0x000043fc                g_HexChars

.eh_frame       0x00004410       0xd8
 .eh_frame      0x00004410       0x64 /home/Ythunder/Ythunder/OSdev/toolchain/lib/gcc/i686-elf/15.2.0/libgcc.a(_udivdi3.o)
 .eh_frame      0x00004474       0x74 /home/Ythunder/Ythunder/OSdev/toolchain/lib/gcc/i686-elf/15.2.0/libgcc.a(_umoddi3.o)

.bss            0x00004500      0xc48
                0x00004500                        __bss_start = .
 *(.bss)
 .bss           0x00004500        0x0 /home/Ythunder/Desktop/OSdev/build/stage2/c/ata.obj
 .bss           0x00004500       0x34 /home/Ythunder/Desktop/OSdev/build/stage2/c/fat.obj
 .bss           0x00004534        0x0 /home/Ythunder/Desktop/OSdev/build/stage2/c/gdt.obj
 *fill*         0x00004534        0xc 
 .bss           0x00004540      0x800 /home/Ythunder/Desktop/OSdev/build/stage2/c/idt.obj
                0x00004540                g_IDT
 .bss           0x00004d40      0x400 /home/Ythunder/Desktop/OSdev/build/stage2/c/isr.obj
                0x00004d40                g_ISRHandlers
 .bss           0x00005140        0x0 /home/Ythunder/Desktop/OSdev/build/stage2/c/isrs_gen.obj
 .bss           0x00005140        0x0 /home/Ythunder/Desktop/OSdev/build/stage2/c/main.obj
 .bss           0x00005140        0x8 /home/Ythunder/Desktop/OSdev/build/stage2/c/stdio.obj
                0x00005140                g_ScreenX
                0x00005144                g_ScreenY
 .bss           0x00005148        0x0 /home/Ythunder/Ythunder/OSdev/toolchain/lib/gcc/i686-elf/15.2.0/libgcc.a(_udivdi3.o)
 .bss           0x00005148        0x0 /home/Ythunder/Ythunder/OSdev/toolchain/lib/gcc/i686-elf/15.2.0/libgcc.a(_umoddi3.o)
                0x00005148                        __end = .
OUTPUT(/home/Ythunder/Desktop/OSdev/build/stage2.bin binary)

.debug_info     0x00000000     0x2b18
 .debug_info    0x00000000      0x21c /home/Ythunder/Desktop/OSdev/build/stage2/c/ata.obj
 .debug_info    0x0000021c      0x5b9 /home/Ythunder/Desktop/OSdev/build/stage2/c/fat.obj
 .debug_info    0x000007d5      0x1fa /home/Ythunder/Desktop/OSdev/build/stage2/c/gdt.obj
 .debug_info    0x000009cf      0x24e /home/Ythunder/Desktop/OSdev/build/stage2/c/idt.obj
 .debug_info    0x00000c1d      0x29c /home/Ythunder/Desktop/OSdev/build/stage2/c/isr.obj
 .debug_info    0x00000eb9      0xd09 /home/Ythunder/Desktop/OSdev/build/stage2/c/isrs_gen.obj
 .debug_info    0x00001bc2      0x389 /home/Ythunder/Desktop/OSdev/build/stage2/c/main.obj
 .debug_info    0x00001f4b      0x54c /home/Ythunder/Desktop/OSdev/build/stage2/c/stdio.obj
 .debug_info    0x00002497      0x331 /home/Ythunder/Ythunder/OSdev/toolchain/lib/gcc/i686-elf/15.2.0/libgcc.a(_udivdi3.o)
 .debug_info    0x000027c8      0x350 /home/Ythunder/Ythunder/OSdev/toolchain/lib/gcc/i686-elf/15.2.0/libgcc.a(_umoddi3.o)

.debug_abbrev   0x00000000      0xd9d
 .debug_abbrev  0x00000000      0x122 /home/Ythunder/Desktop/OSdev/build/stage2/c/ata.obj
 .debug_abbrev  0x00000122      0x1eb /home/Ythunder/Desktop/OSdev/build/stage2/c/fat.obj
 .debug_abbrev  0x0000030d       0xf0 /home/Ythunder/Desktop/OSdev/build/stage2/c/gdt.obj
 .debug_abbrev  0x000003fd      0x122 /home/Ythunder/Desktop/OSdev/build/stage2/c/idt.obj
 .debug_abbrev  0x0000051f      0x150 /home/Ythunder/Desktop/OSdev/build/stage2/c/isr.obj
 .debug_abbrev  0x0000066f       0xbf /home/Ythunder/Desktop/OSdev/build/stage2/c/isrs_gen.obj
 .debug_abbrev  0x0000072e      0x1af /home/Ythunder/Desktop/OSdev/build/stage2/c/main.obj
 .debug_abbrev  0x000008dd      0x1f6 /home/Ythunder/Desktop/OSdev/build/stage2/c/stdio.obj
 .debug_abbrev  0x00000ad3      0x15a /home/Ythunder/Ythunder/OSdev/toolchain/lib/gcc/i686-elf/15.2.0/libgcc.a(_udivdi3.o)
 .debug_abbrev  0x00000c2d      0x170 /home/Ythunder/Ythunder/OSdev/toolchain/lib/gcc/i686-elf/15.2.0/libgcc.a(_umoddi3.o)

.debug_aranges  0x00000000      0x140
 .debug_aranges
                0x00000000       0x20 /home/Ythunder/Desktop/OSdev/build/stage2/c/ata.obj
 .debug_aranges
                0x00000020       0x20 /home/Ythunder/Desktop/OSdev/build/stage2/c/fat.obj
 .debug_aranges
                0x00000040       0x20 /home/Ythunder/Desktop/OSdev/build/stage2/c/gdt.obj
 .debug_aranges
                0x00000060       0x20 /home/Ythunder/Desktop/OSdev/build/stage2/c/idt.obj
 .debug_aranges
                0x00000080       0x20 /home/Ythunder/Desktop/OSdev/build/stage2/c/isr.obj
 .debug_aranges
                0x000000a0       0x20 /home/Ythunder/Desktop/OSdev/build/stage2/c/isrs_gen.obj
 .debug_aranges
                0x000000c0       0x20 /home/Ythunder/Desktop/OSdev/build/stage2/c/main.obj
 .debug_aranges
                0x000000e0       0x20 /home/Ythunder/Desktop/OSdev/build/stage2/c/stdio.obj
 .debug_aranges
                0x00000100       0x20 /home/Ythunder/Ythunder/OSdev/toolchain/lib/gcc/i686-elf/15.2.0/libgcc.a(_udivdi3.o)
 .debug_aranges
                0x00000120       0x20 /home/Ythunder/Ythunder/OSdev/toolchain/lib/gcc/i686-elf/15.2.0/libgcc.a(_umoddi3.o)

.debug_line     0x00000000     0x1032
 .debug_line    0x00000000      0x10e /home/Ythunder/Desktop/OSdev/build/stage2/c/ata.obj
 .debug_line    0x0000010e      0x311 /home/Ythunder/Desktop/OSdev/build/stage2/c/fat.obj
 .debug_line    0x0000041f       0x58 /home/Ythunder/Desktop/OSdev/build/stage2/c/gdt.obj
 .debug_line    0x00000477       0x85 /home/Ythunder/Desktop/OSdev/build/stage2/c/idt.obj
 .debug_line    0x000004fc       0xd0 /home/Ythunder/Desktop/OSdev/build/stage2/c/isr.obj
 .debug_line    0x000005cc      0x25b /home/Ythunder/Desktop/OSdev/build/stage2/c/isrs_gen.obj
 .debug_line    0x00000827      0x113 /home/Ythunder/Desktop/OSdev/build/stage2/c/main.obj
 .debug_line    0x0000093a      0x3ad /home/Ythunder/Desktop/OSdev/build/stage2/c/stdio.obj
 .debug_line    0x00000ce7      0x17b /home/Ythunder/Ythunder/OSdev/toolchain/lib/gcc/i686-elf/15.2.0/libgcc.a(_udivdi3.o)
 .debug_line    0x00000e62      0x1d0 /home/Ythunder/Ythunder/OSdev/toolchain/lib/gcc/i686-elf/15.2.0/libgcc.a(_umoddi3.o)

.debug_str      0x00000000     0x1cef
 .debug_str     0x00000000      0x140 /home/Ythunder/Desktop/OSdev/build/stage2/c/ata.obj
 .debug_str     0x00000140      0x36f /home/Ythunder/Desktop/OSdev/build/stage2/c/fat.obj
 .debug_str     0x000004af      0x2f0 /home/Ythunder/Desktop/OSdev/build/stage2/c/gdt.obj
 .debug_str     0x0000079f      0x278 /home/Ythunder/Desktop/OSdev/build/stage2/c/idt.obj
 .debug_str     0x00000a17      0x1a8 /home/Ythunder/Desktop/OSdev/build/stage2/c/isr.obj
 .debug_str     0x00000bbf      0x854 /home/Ythunder/Desktop/OSdev/build/stage2/c/isrs_gen.obj
 .debug_str     0x00001413      0x298 /home/Ythunder/Desktop/OSdev/build/stage2/c/main.obj
 .debug_str     0x000016ab      0x24a /home/Ythunder/Desktop/OSdev/build/stage2/c/stdio.obj
 .debug_str     0x000018f5      0x1fd /home/Ythunder/Ythunder/OSdev/toolchain/lib/gcc/i686-elf/15.2.0/libgcc.a(_udivdi3.o)
 .debug_str     0x00001af2      0x1fd /home/Ythunder/Ythunder/OSdev/toolchain/lib/gcc/i686-elf/15.2.0/libgcc.a(_umoddi3.o)

.debug_line_str
                0x00000000      0x88d
 .debug_line_str
                0x00000000       0xcd /home/Ythunder/Desktop/OSdev/build/stage2/c/ata.obj
 .debug_line_str
                0x000000cd       0xe1 /home/Ythunder/Desktop/OSdev/build/stage2/c/fat.obj
 .debug_line_str
                0x000001ae       0xcd /home/Ythunder/Desktop/OSdev/build/stage2/c/gdt.obj
 .debug_line_str
                0x0000027b       0xd3 /home/Ythunder/Desktop/OSdev/build/stage2/c/idt.obj
 .debug_line_str
                0x0000034e       0xe6 /home/Ythunder/Desktop/OSdev/build/stage2/c/isr.obj
 .debug_line_str
                0x00000434       0xe2 /home/Ythunder/Desktop/OSdev/build/stage2/c/isrs_gen.obj
 .debug_line_str
                0x00000516       0xf6 /home/Ythunder/Desktop/OSdev/build/stage2/c/main.obj
 .debug_line_str
                0x0000060c       0xe1 /home/Ythunder/Desktop/OSdev/build/stage2/c/stdio.obj
 .debug_line_str
                0x000006ed       0xd0 /home/Ythunder/Ythunder/OSdev/toolchain/lib/gcc/i686-elf/15.2.0/libgcc.a(_udivdi3.o)
 .debug_line_str
                0x000007bd       0xd0 /home/Ythunder/Ythunder/OSdev/toolchain/lib/gcc/i686-elf/15.2.0/libgcc.a(_umoddi3.o)

.comment        0x00000000       0xbe
 .comment       0x00000000       0x13 /home/Ythunder/Desktop/OSdev/build/stage2/c/ata.obj
 .comment       0x00000013       0x13 /home/Ythunder/Desktop/OSdev/build/stage2/c/fat.obj
 .comment       0x00000026       0x13 /home/Ythunder/Desktop/OSdev/build/stage2/c/gdt.obj
 .comment       0x00000039       0x13 /home/Ythunder/Desktop/OSdev/build/stage2/c/idt.obj
 .comment       0x0000004c       0x13 /home/Ythunder/Desktop/OSdev/build/stage2/c/isr.obj
 .comment       0x0000005f       0x13 /home/Ythunder/Desktop/OSdev/build/stage2/c/isrs_gen.obj
 .comment       0x00000072       0x13 /home/Ythunder/Desktop/OSdev/build/stage2/c/main.obj
 .comment       0x00000085       0x13 /home/Ythunder/Desktop/OSdev/build/stage2/c/stdio.obj
 .comment       0x00000098       0x13 /home/Ythunder/Ythunder/OSdev/toolchain/lib/gcc/i686-elf/15.2.0/libgcc.a(_udivdi3.o)
 .comment       0x000000ab       0x13 /home/Ythunder/Ythunder/OSdev/toolchain/lib/gcc/i686-elf/15.2.0/libgcc.a(_umoddi3.o)

.debug_frame    0x00000000      0x58c
 .debug_frame   0x00000000       0xd8 /home/Ythunder/Desktop/OSdev/build/stage2/c/ata.obj
 .debug_frame   0x000000d8      0x114 /home/Ythunder/Desktop/OSdev/build/stage2/c/fat.obj
 .debug_frame   0x000001ec       0x34 /home/Ythunder/Desktop/OSdev/build/stage2/c/gdt.obj
 .debug_frame   0x00000220       0x94 /home/Ythunder/Desktop/OSdev/build/stage2/c/idt.obj
 .debug_frame   0x000002b4       0x80 /home/Ythunder/Desktop/OSdev/build/stage2/c/isr.obj
 .debug_frame   0x00000334       0x34 /home/Ythunder/Desktop/OSdev/build/stage2/c/isrs_gen.obj
 .debug_frame   0x00000368       0x6c /home/Ythunder/Desktop/OSdev/build/stage2/c/main.obj
 .debug_frame   0x000003d4      0x1b8 /home/Ythunder/Desktop/OSdev/build/stage2/c/stdio.obj

.debug_rnglists
                0x00000000       0x60
 .debug_rnglists
                0x00000000       0x17 /home/Ythunder/Desktop/OSdev/build/stage2/c/fat.obj
 .debug_rnglists
                0x00000017       0x2a /home/Ythunder/Ythunder/OSdev/toolchain/lib/gcc/i686-elf/15.2.0/libgcc.a(_udivdi3.o)
 .debug_rnglists
                0x00000041       0x1f /home/Ythunder/Ythunder/OSdev/toolchain/lib/gcc/i686-elf/15.2.0/libgcc.a(_umoddi3.o)

.debug_loclists
                0x00000000      0x940
 .debug_loclists
                0x00000000      0x4de /home/Ythunder/Ythunder/OSdev/toolchain/lib/gcc/i686-elf/15.2.0/libgcc.a(_udivdi3.o)
 .debug_loclists
                0x000004de      0x462 /home/Ythunder/Ythunder/OSdev/toolchain/lib/gcc/i686-elf/15.2.0/libgcc.a(_umoddi3.o)
